target datalayout = "e-m:e-p270:32:32-p271:32:32-p272:64:64-i64:64-i128:128-f80:128-n8:16:32:64-S128"
target triple = "x86_64-pc-linux-gnu"

%struct.If_Grp_t_ = type { i8, i8, [16 x i8] }

; Function Attrs: nounwind uwtable
define i32 @If_CluCheckExt(ptr noundef %0, ptr noundef %1, i32 noundef %2, i32 noundef %3, i32 noundef %4, ptr noundef %5, ptr noundef %6, ptr noundef %7, ptr noundef %8) #0 {
  %10 = alloca ptr, align 8
  %11 = alloca ptr, align 8
  %12 = alloca i32, align 4
  %13 = alloca i32, align 4
  %14 = alloca i32, align 4
  %15 = alloca ptr, align 8
  %16 = alloca ptr, align 8
  %17 = alloca ptr, align 8
  %18 = alloca ptr, align 8
  %19 = alloca ptr, align 8
  %20 = alloca %struct.If_Grp_t_, align 1
  %21 = alloca %struct.If_Grp_t_, align 1
  %22 = alloca %struct.If_Grp_t_, align 1
  store ptr %0, ptr %10, align 8, !tbaa !13
  store ptr %1, ptr %11, align 8, !tbaa !51
  store i32 %2, ptr %12, align 4, !tbaa !3
  store i32 %3, ptr %13, align 4, !tbaa !3
  store i32 %4, ptr %14, align 4, !tbaa !3
  store ptr %5, ptr %15, align 8, !tbaa !23
  store ptr %6, ptr %16, align 8, !tbaa !23
  store ptr %7, ptr %17, align 8, !tbaa !51
  store ptr %8, ptr %18, align 8, !tbaa !51
  call void @llvm.lifetime.start.p0(i64 8, ptr %19) #11
  %23 = load ptr, ptr %10, align 8, !tbaa !13
  store ptr %23, ptr %19, align 8, !tbaa !10
  call void @llvm.lifetime.start.p0(i64 18, ptr %20) #11
  call void @llvm.lifetime.start.p0(i64 18, ptr %21) #11
  call void @llvm.lifetime.start.p0(i64 18, ptr %22) #11
  %24 = load ptr, ptr %19, align 8, !tbaa !10
  %25 = load ptr, ptr %11, align 8, !tbaa !51
  %26 = load i32, ptr %12, align 4, !tbaa !3
  %27 = load i32, ptr %13, align 4, !tbaa !3
  %28 = load i32, ptr %14, align 4, !tbaa !3
  %29 = load ptr, ptr %17, align 8, !tbaa !51
  %30 = load ptr, ptr %18, align 8, !tbaa !51
  call void @If_CluCheck(ptr dead_on_unwind writable sret(%struct.If_Grp_t_) align 1 %22, ptr noundef %24, ptr noundef %25, i32 noundef %26, i32 noundef 0, i32 noundef 0, i32 noundef %27, i32 noundef %28, ptr noundef %21, ptr noundef %29, ptr noundef %30, ptr noundef null, i32 noundef 0)
  call void @llvm.memcpy.p0.p0.i64(ptr align 1 %20, ptr align 1 %22, i64 18, i1 false), !tbaa.struct !48
  call void @llvm.lifetime.end.p0(i64 18, ptr %22) #11
  %31 = load ptr, ptr %15, align 8, !tbaa !23
  call void @llvm.memcpy.p0.p0.i64(ptr align 1 %31, ptr align 1 %21, i64 18, i1 false)
  %32 = load ptr, ptr %16, align 8, !tbaa !23
  call void @llvm.memcpy.p0.p0.i64(ptr align 1 %32, ptr align 1 %20, i64 18, i1 false)
  %33 = getelementptr inbounds nuw %struct.If_Grp_t_, ptr %20, i32 0, i32 0
  %34 = load i8, ptr %33, align 1, !tbaa !49
  %35 = sext i8 %34 to i32
  %36 = icmp sgt i32 %35, 0
  %37 = zext i1 %36 to i32
  call void @llvm.lifetime.end.p0(i64 18, ptr %21) #11
  call void @llvm.lifetime.end.p0(i64 18, ptr %20) #11
  call void @llvm.lifetime.end.p0(i64 8, ptr %19) #11
  ret i32 %37
}