; Function Attrs: nounwind uwtable
define range(i32 0, 2) i32 @If_CluCheckExt(ptr noundef %0, ptr noundef readonly captures(none) %1, i32 noundef %2, i32 noundef %3, i32 noundef %4, ptr noundef writeonly captures(none) initializes((0, 18)) %5, ptr noundef writeonly captures(none) initializes((0, 18)) %6, ptr noundef %7, ptr noundef %8) local_unnamed_addr #2 {
  %.sroa.5 = alloca { i8, [16 x i8] }, align 8
  %10 = alloca %struct.If_Grp_t_, align 1
  %11 = alloca %struct.If_Grp_t_, align 1
  call void @llvm.lifetime.start.p0(i64 17, ptr nonnull %.sroa.5)
  call void @llvm.lifetime.start.p0(i64 18, ptr nonnull %10) #22
  call void @llvm.lifetime.start.p0(i64 18, ptr nonnull %11) #22
  call void @If_CluCheck(ptr dead_on_unwind nonnull writable sret(%struct.If_Grp_t_) align 1 %11, ptr noundef %0, ptr noundef %1, i32 noundef %2, i32 noundef 0, i32 noundef 0, i32 noundef %3, i32 noundef %4, ptr noundef nonnull %10, ptr noundef %7, ptr noundef %8, ptr noundef null, i32 noundef 0)
  %.sroa.0.0.copyload = load i8, ptr %11, align 1, !tbaa !59
  %.sroa.5.0..sroa_idx = getelementptr inbounds nuw i8, ptr %11, i64 1
  call void @llvm.memcpy.p0.p0.i64(ptr noundef nonnull align 8 dereferenceable(17) %.sroa.5, ptr noundef nonnull align 1 dereferenceable(17) %.sroa.5.0..sroa_idx, i64 17, i1 false), !tbaa.struct !198
  call void @llvm.lifetime.end.p0(i64 18, ptr nonnull %11) #22
  call void @llvm.memcpy.p0.p0.i64(ptr noundef nonnull align 1 dereferenceable(18) %5, ptr noundef nonnull align 1 dereferenceable(18) %10, i64 18, i1 false)
  store i8 %.sroa.0.0.copyload, ptr %6, align 1
  %.sroa.5.0..sroa_idx2 = getelementptr inbounds nuw i8, ptr %6, i64 1
  call void @llvm.memcpy.p0.p0.i64(ptr noundef nonnull align 1 dereferenceable(17) %.sroa.5.0..sroa_idx2, ptr noundef nonnull align 8 dereferenceable(17) %.sroa.5, i64 17, i1 false)
  %12 = icmp sgt i8 %.sroa.0.0.copyload, 0
  %13 = zext i1 %12 to i32
  call void @llvm.lifetime.end.p0(i64 18, ptr nonnull %10) #22
  call void @llvm.lifetime.end.p0(i64 17, ptr nonnull %.sroa.5)
  ret i32 %13
}